target datalayout = "e-m:e-p270:32:32-p271:32:32-p272:64:64-i64:64-i128:128-f80:128-n8:16:32:64-S128"
target triple = "x86_64-pc-linux-gnu"

; Function Attrs: nounwind uwtable
define internal i32 @compare_rows_presets(ptr noundef %0, ptr noundef %1, ptr noundef %2, ptr noundef %3) #0 {
  %5 = alloca ptr, align 8
  %6 = alloca ptr, align 8
  %7 = alloca ptr, align 8
  %8 = alloca ptr, align 8
  %9 = alloca ptr, align 8
  %10 = alloca ptr, align 8
  %11 = alloca i32, align 4
  store ptr %0, ptr %5, align 8, !tbaa !146
  store ptr %1, ptr %6, align 8, !tbaa !148
  store ptr %2, ptr %7, align 8, !tbaa !148
  store ptr %3, ptr %8, align 8, !tbaa !61
  call void @llvm.lifetime.start.p0(i64 8, ptr %9) #10
  call void @llvm.lifetime.start.p0(i64 8, ptr %10) #10
  %12 = load ptr, ptr %5, align 8, !tbaa !146
  %13 = load ptr, ptr %6, align 8, !tbaa !148
  call void (ptr, ptr, ...) @gtk_tree_model_get(ptr noundef %12, ptr noundef %13, i32 noundef 2, ptr noundef %9, i32 noundef -1)
  %14 = load ptr, ptr %5, align 8, !tbaa !146
  %15 = load ptr, ptr %7, align 8, !tbaa !148
  call void (ptr, ptr, ...) @gtk_tree_model_get(ptr noundef %14, ptr noundef %15, i32 noundef 2, ptr noundef %10, i32 noundef -1)
  %16 = load ptr, ptr %9, align 8, !tbaa !73
  %17 = load i8, ptr %16, align 1, !tbaa !74
  %18 = sext i8 %17 to i32
  %19 = icmp eq i32 %18, 0
  br i1 %19, label %20, label %32

20:                                               ; preds = %4
  %21 = load ptr, ptr %10, align 8, !tbaa !73
  %22 = load i8, ptr %21, align 1, !tbaa !74
  %23 = sext i8 %22 to i32
  %24 = icmp eq i32 %23, 0
  br i1 %24, label %25, label %32

25:                                               ; preds = %20
  %26 = load ptr, ptr %9, align 8, !tbaa !73
  call void @g_free(ptr noundef %26)
  %27 = load ptr, ptr %10, align 8, !tbaa !73
  call void @g_free(ptr noundef %27)
  %28 = load ptr, ptr %5, align 8, !tbaa !146
  %29 = load ptr, ptr %6, align 8, !tbaa !148
  call void (ptr, ptr, ...) @gtk_tree_model_get(ptr noundef %28, ptr noundef %29, i32 noundef 4, ptr noundef %9, i32 noundef -1)
  %30 = load ptr, ptr %5, align 8, !tbaa !146
  %31 = load ptr, ptr %7, align 8, !tbaa !148
  call void (ptr, ptr, ...) @gtk_tree_model_get(ptr noundef %30, ptr noundef %31, i32 noundef 4, ptr noundef %10, i32 noundef -1)
  br label %32

32:                                               ; preds = %25, %20, %4
  call void @llvm.lifetime.start.p0(i64 4, ptr %11) #10
  %33 = load ptr, ptr %9, align 8, !tbaa !73
  %34 = load ptr, ptr %10, align 8, !tbaa !73
  %35 = call i32 @strcoll(ptr noundef %33, ptr noundef %34) #12
  store i32 %35, ptr %11, align 4, !tbaa !57
  %36 = load ptr, ptr %9, align 8, !tbaa !73
  call void @g_free(ptr noundef %36)
  %37 = load ptr, ptr %10, align 8, !tbaa !73
  call void @g_free(ptr noundef %37)
  %38 = load i32, ptr %11, align 4, !tbaa !57
  call void @llvm.lifetime.end.p0(i64 4, ptr %11) #10
  call void @llvm.lifetime.end.p0(i64 8, ptr %10) #10
  call void @llvm.lifetime.end.p0(i64 8, ptr %9) #10
  ret i32 %38
}