; Function Attrs: nounwind uwtable
define internal i32 @compare_rows_presets(ptr noundef %0, ptr noundef %1, ptr noundef %2, ptr readnone captures(none) %3) #0 {
  %5 = alloca ptr, align 8
  %6 = alloca ptr, align 8
  call void @llvm.lifetime.start.p0(i64 8, ptr nonnull %5) #12
  call void @llvm.lifetime.start.p0(i64 8, ptr nonnull %6) #12
  call void (ptr, ptr, ...) @gtk_tree_model_get(ptr noundef %0, ptr noundef %1, i32 noundef 2, ptr noundef nonnull %5, i32 noundef -1) #12
  call void (ptr, ptr, ...) @gtk_tree_model_get(ptr noundef %0, ptr noundef %2, i32 noundef 2, ptr noundef nonnull %6, i32 noundef -1) #12
  %7 = load ptr, ptr %5, align 8, !tbaa !75
  %8 = load i8, ptr %7, align 1, !tbaa !59
  %9 = icmp eq i8 %8, 0
  %.pre9 = load ptr, ptr %6, align 8, !tbaa !75
  br i1 %9, label %10, label %15

10:                                               ; preds = %4
  %11 = load i8, ptr %.pre9, align 1, !tbaa !59
  %12 = icmp eq i8 %11, 0
  br i1 %12, label %13, label %15

13:                                               ; preds = %10
  call void @g_free(ptr noundef nonnull %7) #12
  %14 = load ptr, ptr %6, align 8, !tbaa !75
  call void @g_free(ptr noundef %14) #12
  call void (ptr, ptr, ...) @gtk_tree_model_get(ptr noundef %0, ptr noundef %1, i32 noundef 4, ptr noundef nonnull %5, i32 noundef -1) #12
  call void (ptr, ptr, ...) @gtk_tree_model_get(ptr noundef %0, ptr noundef %2, i32 noundef 4, ptr noundef nonnull %6, i32 noundef -1) #12
  %.pre = load ptr, ptr %5, align 8, !tbaa !75
  %.pre8 = load ptr, ptr %6, align 8, !tbaa !75
  br label %15

15:                                               ; preds = %13, %10, %4
  %16 = phi ptr [ %.pre8, %13 ], [ %.pre9, %10 ], [ %.pre9, %4 ]
  %17 = phi ptr [ %.pre, %13 ], [ %7, %10 ], [ %7, %4 ]
  %18 = call i32 @strcoll(ptr noundef %17, ptr noundef %16) #14
  call void @g_free(ptr noundef %17) #12
  %19 = load ptr, ptr %6, align 8, !tbaa !75
  call void @g_free(ptr noundef %19) #12
  call void @llvm.lifetime.end.p0(i64 8, ptr nonnull %6) #12
  call void @llvm.lifetime.end.p0(i64 8, ptr nonnull %5) #12
  ret i32 %18
}